; ModuleID = '38/622.c'
source_filename = "38/622.c"
target datalayout = "e-m:e-p270:32:32-p271:32:32-p272:64:64-i64:64-f80:128-n8:16:32:64-S128"
target triple = "x86_64-pc-linux-gnu"

@.str = private unnamed_addr constant [3 x i8] c"%d\00", align 1
@.str.1 = private unnamed_addr constant [4 x i8] c"%lf\00", align 1
@.str.2 = private unnamed_addr constant [7 x i8] c"%.5lf\0A\00", align 1

; Function Attrs: noinline nounwind uwtable
define dso_local i32 @main() #0 {
  %1 = alloca i32, align 4
  %2 = alloca i32, align 4
  %3 = alloca i32, align 4
  %4 = alloca i32, align 4
  %5 = alloca [100 x double], align 16
  %6 = alloca double, align 8
  %7 = alloca double, align 8
  %8 = alloca double, align 8
  %9 = alloca double, align 8
  %10 = alloca double, align 8
  store i32 0, i32* %1, align 4
  %11 = call i32 (i8*, ...) @__isoc99_scanf(i8* getelementptr inbounds ([3 x i8], [3 x i8]* @.str, i64 0, i64 0), i32* %2)
  store i32 0, i32* %3, align 4
  br label %12

12:                                               ; preds = %79, %0
  %13 = load i32, i32* %3, align 4
  %14 = load i32, i32* %2, align 4
  %15 = icmp slt i32 %13, %14
  br i1 %15, label %16, label %82

16:                                               ; preds = %12
  %17 = call i32 (i8*, ...) @__isoc99_scanf(i8* getelementptr inbounds ([4 x i8], [4 x i8]* @.str.1, i64 0, i64 0), double* %10)
  store double 0.000000e+00, double* %6, align 8
  store double 0.000000e+00, double* %7, align 8
  store i32 0, i32* %4, align 4
  br label %18

18:                                               ; preds = %34, %16
  %19 = load i32, i32* %4, align 4
  %20 = sitofp i32 %19 to double
  %21 = load double, double* %10, align 8
  %22 = fcmp olt double %20, %21
  br i1 %22, label %23, label %37

23:                                               ; preds = %18
  %24 = load i32, i32* %4, align 4
  %25 = sext i32 %24 to i64
  %26 = getelementptr inbounds [100 x double], [100 x double]* %5, i64 0, i64 %25
  %27 = call i32 (i8*, ...) @__isoc99_scanf(i8* getelementptr inbounds ([4 x i8], [4 x i8]* @.str.1, i64 0, i64 0), double* %26)
  %28 = load i32, i32* %4, align 4
  %29 = sext i32 %28 to i64
  %30 = getelementptr inbounds [100 x double], [100 x double]* %5, i64 0, i64 %29
  %31 = load double, double* %30, align 8
  %32 = load double, double* %6, align 8
  %33 = fadd double %32, %31
  store double %33, double* %6, align 8
  br label %34

34:                                               ; preds = %23
  %35 = load i32, i32* %4, align 4
  %36 = add nsw i32 %35, 1
  store i32 %36, i32* %4, align 4
  br label %18

37:                                               ; preds = %18
  %38 = load double, double* %6, align 8
  %39 = load double, double* %10, align 8
  %40 = fdiv double %38, %39
  store double %40, double* %8, align 8
  store i32 0, i32* %4, align 4
  br label %41

41:                                               ; preds = %69, %37
  %42 = load i32, i32* %4, align 4
  %43 = sitofp i32 %42 to double
  %44 = load double, double* %10, align 8
  %45 = fcmp olt double %43, %44
  br i1 %45, label %46, label %72

46:                                               ; preds = %41
  %47 = load i32, i32* %4, align 4
  %48 = sext i32 %47 to i64
  %49 = getelementptr inbounds [100 x double], [100 x double]* %5, i64 0, i64 %48
  %50 = load double, double* %49, align 8
  %51 = load double, double* %8, align 8
  %52 = fsub double %50, %51
  %53 = load i32, i32* %4, align 4
  %54 = sext i32 %53 to i64
  %55 = getelementptr inbounds [100 x double], [100 x double]* %5, i64 0, i64 %54
  %56 = load double, double* %55, align 8
  %57 = load double, double* %8, align 8
  %58 = fsub double %56, %57
  %59 = fmul double %52, %58
  %60 = load i32, i32* %4, align 4
  %61 = sext i32 %60 to i64
  %62 = getelementptr inbounds [100 x double], [100 x double]* %5, i64 0, i64 %61
  store double %59, double* %62, align 8
  %63 = load i32, i32* %4, align 4
  %64 = sext i32 %63 to i64
  %65 = getelementptr inbounds [100 x double], [100 x double]* %5, i64 0, i64 %64
  %66 = load double, double* %65, align 8
  %67 = load double, double* %7, align 8
  %68 = fadd double %67, %66
  store double %68, double* %7, align 8
  br label %69

69:                                               ; preds = %46
  %70 = load i32, i32* %4, align 4
  %71 = add nsw i32 %70, 1
  store i32 %71, i32* %4, align 4
  br label %41

72:                                               ; preds = %41
  %73 = load double, double* %7, align 8
  %74 = load double, double* %10, align 8
  %75 = fdiv double %73, %74
  %76 = call double @sqrt(double %75) #3
  store double %76, double* %9, align 8
  %77 = load double, double* %9, align 8
  %78 = call i32 (i8*, ...) @printf(i8* getelementptr inbounds ([7 x i8], [7 x i8]* @.str.2, i64 0, i64 0), double %77)
  br label %79

79:                                               ; preds = %72
  %80 = load i32, i32* %3, align 4
  %81 = add nsw i32 %80, 1
  store i32 %81, i32* %3, align 4
  br label %12

82:                                               ; preds = %12
  ret i32 0
}

declare dso_local i32 @__isoc99_scanf(i8*, ...) #1

; Function Attrs: nounwind
declare dso_local double @sqrt(double) #2

declare dso_local i32 @printf(i8*, ...) #1


!llvm.module.flags = !{!0}
!llvm.ident = !{!1}

!0 = !{i32 1, !"wchar_size", i32 4}
!1 = !{!"clang version 10.0.0-4ubuntu1 "}
