; ModuleID = 'source-C-CXX/37/622.c'
source_filename = "source-C-CXX/37/622.c"
target datalayout = "e-m:e-p270:32:32-p271:32:32-p272:64:64-i64:64-f80:128-n8:16:32:64-S128"
target triple = "x86_64-pc-linux-gnu"

@.str = private unnamed_addr constant [3 x i8] c"%d\00", align 1
@.str.1 = private unnamed_addr constant [4 x i8] c"%lf\00", align 1
@.str.2 = private unnamed_addr constant [7 x i8] c"%.5lf\0A\00", align 1

; Function Attrs: nofree nounwind sspstrong uwtable
define dso_local i32 @main() local_unnamed_addr #0 {
  %1 = alloca i32, align 4
  %2 = alloca [100 x double], align 16
  %3 = alloca double, align 8
  %4 = bitcast i32* %1 to i8*
  call void @llvm.lifetime.start.p0i8(i64 4, i8* nonnull %4) #4
  %5 = bitcast [100 x double]* %2 to i8*
  call void @llvm.lifetime.start.p0i8(i64 800, i8* nonnull %5) #4
  %6 = bitcast double* %3 to i8*
  call void @llvm.lifetime.start.p0i8(i64 8, i8* nonnull %6) #4
  %7 = call i32 (i8*, ...) @__isoc99_scanf(i8* getelementptr inbounds ([3 x i8], [3 x i8]* @.str, i64 0, i64 0), i32* nonnull %1)
  %8 = load i32, i32* %1, align 4, !tbaa !5
  %9 = icmp sgt i32 %8, 0
  br i1 %9, label %10, label %52

10:                                               ; preds = %0, %44
  %11 = phi i32 [ %49, %44 ], [ 0, %0 ]
  %12 = call i32 (i8*, ...) @__isoc99_scanf(i8* getelementptr inbounds ([4 x i8], [4 x i8]* @.str.1, i64 0, i64 0), double* nonnull %3)
  %13 = load double, double* %3, align 8, !tbaa !9
  %14 = fcmp ogt double %13, 0.000000e+00
  br i1 %14, label %15, label %27

15:                                               ; preds = %10, %15
  %16 = phi i64 [ %22, %15 ], [ 0, %10 ]
  %17 = phi double [ %21, %15 ], [ 0.000000e+00, %10 ]
  %18 = getelementptr inbounds [100 x double], [100 x double]* %2, i64 0, i64 %16
  %19 = call i32 (i8*, ...) @__isoc99_scanf(i8* getelementptr inbounds ([4 x i8], [4 x i8]* @.str.1, i64 0, i64 0), double* nonnull %18)
  %20 = load double, double* %18, align 8, !tbaa !9
  %21 = fadd double %17, %20
  %22 = add nuw i64 %16, 1
  %23 = trunc i64 %22 to i32
  %24 = sitofp i32 %23 to double
  %25 = load double, double* %3, align 8, !tbaa !9
  %26 = fcmp ogt double %25, %24
  br i1 %26, label %15, label %27, !llvm.loop !11

27:                                               ; preds = %15, %10
  %28 = phi double [ 0.000000e+00, %10 ], [ %21, %15 ]
  %29 = phi double [ %13, %10 ], [ %25, %15 ]
  %30 = fdiv double %28, %29
  %31 = fcmp ogt double %29, 0.000000e+00
  br i1 %31, label %32, label %44

32:                                               ; preds = %27, %32
  %33 = phi i64 [ %40, %32 ], [ 0, %27 ]
  %34 = phi double [ %39, %32 ], [ 0.000000e+00, %27 ]
  %35 = getelementptr inbounds [100 x double], [100 x double]* %2, i64 0, i64 %33
  %36 = load double, double* %35, align 8, !tbaa !9
  %37 = fsub double %36, %30
  %38 = fmul double %37, %37
  store double %38, double* %35, align 8, !tbaa !9
  %39 = fadd double %34, %38
  %40 = add nuw i64 %33, 1
  %41 = trunc i64 %40 to i32
  %42 = sitofp i32 %41 to double
  %43 = fcmp ogt double %29, %42
  br i1 %43, label %32, label %44, !llvm.loop !13

44:                                               ; preds = %32, %27
  %45 = phi double [ 0.000000e+00, %27 ], [ %39, %32 ]
  %46 = fdiv double %45, %29
  %47 = call double @sqrt(double %46) #4
  %48 = call i32 (i8*, ...) @printf(i8* nonnull dereferenceable(1) getelementptr inbounds ([7 x i8], [7 x i8]* @.str.2, i64 0, i64 0), double %47)
  %49 = add nuw nsw i32 %11, 1
  %50 = load i32, i32* %1, align 4, !tbaa !5
  %51 = icmp slt i32 %49, %50
  br i1 %51, label %10, label %52, !llvm.loop !14

52:                                               ; preds = %44, %0
  call void @llvm.lifetime.end.p0i8(i64 8, i8* nonnull %6) #4
  call void @llvm.lifetime.end.p0i8(i64 800, i8* nonnull %5) #4
  call void @llvm.lifetime.end.p0i8(i64 4, i8* nonnull %4) #4
  ret i32 0
}

; Function Attrs: argmemonly mustprogress nofree nosync nounwind willreturn
declare void @llvm.lifetime.start.p0i8(i64 immarg, i8* nocapture) #1

; Function Attrs: nofree nounwind
declare noundef i32 @__isoc99_scanf(i8* nocapture noundef readonly, ...) local_unnamed_addr #2

; Function Attrs: mustprogress nofree nounwind willreturn
declare double @sqrt(double) local_unnamed_addr #3

; Function Attrs: nofree nounwind
declare noundef i32 @printf(i8* nocapture noundef readonly, ...) local_unnamed_addr #2

; Function Attrs: argmemonly mustprogress nofree nosync nounwind willreturn
declare void @llvm.lifetime.end.p0i8(i64 immarg, i8* nocapture) #1


!llvm.module.flags = !{!0, !1, !2, !3}
!llvm.ident = !{!4}

!0 = !{i32 1, !"wchar_size", i32 4}
!1 = !{i32 7, !"PIC Level", i32 2}
!2 = !{i32 7, !"PIE Level", i32 2}
!3 = !{i32 7, !"uwtable", i32 1}
!4 = !{!"clang version 13.0.0"}
!5 = !{!6, !6, i64 0}
!6 = !{!"int", !7, i64 0}
!7 = !{!"omnipotent char", !8, i64 0}
!8 = !{!"Simple C/C++ TBAA"}
!9 = !{!10, !10, i64 0}
!10 = !{!"double", !7, i64 0}
!11 = distinct !{!11, !12}
!12 = !{!"llvm.loop.mustprogress"}
!13 = distinct !{!13, !12}
!14 = distinct !{!14, !12}
